target datalayout = "e-m:e-p270:32:32-p271:32:32-p272:64:64-i64:64-i128:128-f80:128-n8:16:32:64-S128"
target triple = "x86_64-pc-linux-gnu"

%"struct.rocksdb::IOStatsContext" = type <{ i64, i64, i64, i64, i64, i64, i64, i64, i64, i64, i64, i64, i64, %"struct.rocksdb::FileIOByTemperature", i8, [7 x i8] }>
%"struct.rocksdb::FileIOByTemperature" = type { i64, i64, i64, i64, i64, i64 }

@_ZN7rocksdb15iostats_contextE = external thread_local global %"struct.rocksdb::IOStatsContext", align 8

; Function Attrs: uwtable
define linkonce_odr hidden noundef ptr @_ZTWN7rocksdb15iostats_contextE() #14 comdat {
  %1 = icmp ne ptr @_ZTHN7rocksdb15iostats_contextE, null
  br i1 %1, label %2, label %3

2:                                                ; preds = %0
  call void @_ZTHN7rocksdb15iostats_contextE()
  br label %3

3:                                                ; preds = %2, %0
  %4 = call align 8 ptr @llvm.threadlocal.address.p0(ptr align 8 @_ZN7rocksdb15iostats_contextE)
  ret ptr %4
}

; Function Attrs: mustprogress uwtable
define void @_ZN7rocksdb6DBImpl11BGWorkPurgeEPv(ptr noundef %0) #6 align 2 {
  %2 = alloca ptr, align 8
  store ptr %0, ptr %2, align 8, !tbaa !36
  %3 = call ptr @_ZTWN7rocksdb15iostats_contextE()
  %4 = getelementptr inbounds nuw %"struct.rocksdb::IOStatsContext", ptr %3, i32 0, i32 0
  store i64 2, ptr %4, align 8, !tbaa !1621
  %5 = load ptr, ptr %2, align 8, !tbaa !36
  call void @_ZN7rocksdb6DBImpl19BackgroundCallPurgeEv(ptr noundef nonnull align 64 dereferenceable(6868) %5)
  ret void
}