; Function Attrs: uwtable
define void @_ZN7rocksdb6DBImpl11BGWorkPurgeEPv(ptr noundef %0) local_unnamed_addr #15 align 2 {
  %.not.i = icmp eq ptr @_ZTHN7rocksdb15iostats_contextE, null
  br i1 %.not.i, label %_ZTWN7rocksdb15iostats_contextE.exit, label %2

2:                                                ; preds = %1
  tail call void @_ZTHN7rocksdb15iostats_contextE()
  br label %_ZTWN7rocksdb15iostats_contextE.exit

_ZTWN7rocksdb15iostats_contextE.exit:             ; preds = %1, %2
  %3 = tail call noundef align 8 ptr @llvm.threadlocal.address.p0(ptr align 8 @_ZN7rocksdb15iostats_contextE)
  store i64 2, ptr %3, align 8, !tbaa !1763
  tail call void @_ZN7rocksdb6DBImpl19BackgroundCallPurgeEv(ptr noundef nonnull align 64 dereferenceable(6868) %0)
  ret void
}